target datalayout = "e-m:e-p270:32:32-p271:32:32-p272:64:64-i64:64-i128:128-f80:128-n8:16:32:64-S128"
target triple = "x86_64-pc-linux-gnu"

%struct.Ppoly_t = type { ptr, i64 }
%struct.Pedge_t = type { %struct.Pxy_t, %struct.Pxy_t }
%struct.Pxy_t = type { double, double }

@stderr = external global ptr, align 8
@.str = private unnamed_addr constant [58 x i8] c"integer overflow when trying to allocate %zu * %zu bytes\0A\00", align 1
@.str.1 = private unnamed_addr constant [49 x i8] c"out of memory when trying to allocate %zu bytes\0A\00", align 1

; Function Attrs: inlinehint nounwind uwtable
define internal ptr @gv_calloc(i64 noundef %0, i64 noundef %1) #3 {
  %3 = alloca i64, align 8
  %4 = alloca i64, align 8
  %5 = alloca ptr, align 8
  store i64 %0, ptr %3, align 8, !tbaa !27
  store i64 %1, ptr %4, align 8, !tbaa !27
  %6 = load i64, ptr %3, align 8, !tbaa !27
  %7 = icmp ugt i64 %6, 0
  br i1 %7, label %8, label %18

8:                                                ; preds = %2
  %9 = load i64, ptr %3, align 8, !tbaa !27
  %10 = udiv i64 -1, %9
  %11 = load i64, ptr %4, align 8, !tbaa !27
  %12 = icmp ult i64 %10, %11
  br i1 %12, label %13, label %18

13:                                               ; preds = %8
  %14 = load ptr, ptr @stderr, align 8, !tbaa !33
  %15 = load i64, ptr %3, align 8, !tbaa !27
  %16 = load i64, ptr %4, align 8, !tbaa !27
  %17 = call i32 (ptr, ptr, ...) @fprintf(ptr noundef %14, ptr noundef @.str, i64 noundef %15, i64 noundef %16) #10
  call void @graphviz_exit(i32 noundef 1) #11
  unreachable

18:                                               ; preds = %8, %2
  call void @llvm.lifetime.start.p0(i64 8, ptr %5) #10
  %19 = load i64, ptr %3, align 8, !tbaa !27
  %20 = load i64, ptr %4, align 8, !tbaa !27
  %21 = call noalias ptr @calloc(i64 noundef %19, i64 noundef %20) #12
  store ptr %21, ptr %5, align 8, !tbaa !35
  %22 = load i64, ptr %3, align 8, !tbaa !27
  %23 = icmp ugt i64 %22, 0
  br i1 %23, label %24, label %36

24:                                               ; preds = %18
  %25 = load i64, ptr %4, align 8, !tbaa !27
  %26 = icmp ugt i64 %25, 0
  br i1 %26, label %27, label %36

27:                                               ; preds = %24
  %28 = load ptr, ptr %5, align 8, !tbaa !35
  %29 = icmp eq ptr %28, null
  br i1 %29, label %30, label %36

30:                                               ; preds = %27
  %31 = load ptr, ptr @stderr, align 8, !tbaa !33
  %32 = load i64, ptr %3, align 8, !tbaa !27
  %33 = load i64, ptr %4, align 8, !tbaa !27
  %34 = mul i64 %32, %33
  %35 = call i32 (ptr, ptr, ...) @fprintf(ptr noundef %31, ptr noundef @.str.1, i64 noundef %34) #10
  call void @graphviz_exit(i32 noundef 1) #11
  unreachable

36:                                               ; preds = %27, %24, %18
  %37 = load ptr, ptr %5, align 8, !tbaa !35
  call void @llvm.lifetime.end.p0(i64 8, ptr %5) #10
  ret ptr %37
}

; Function Attrs: nounwind uwtable
define i32 @Ppolybarriers(ptr noundef %0, i32 noundef %1, ptr noundef %2, ptr noundef %3) #0 {
  %5 = alloca ptr, align 8
  %6 = alloca i32, align 4
  %7 = alloca ptr, align 8
  %8 = alloca ptr, align 8
  %9 = alloca %struct.Ppoly_t, align 8
  %10 = alloca i32, align 4
  %11 = alloca i32, align 4
  %12 = alloca i32, align 4
  %13 = alloca ptr, align 8
  %14 = alloca i64, align 8
  %15 = alloca i64, align 8
  store ptr %0, ptr %5, align 8, !tbaa !12
  store i32 %1, ptr %6, align 4, !tbaa !14
  store ptr %2, ptr %7, align 8, !tbaa !16
  store ptr %3, ptr %8, align 8, !tbaa !18
  call void @llvm.lifetime.start.p0(i64 16, ptr %9) #10
  call void @llvm.lifetime.start.p0(i64 4, ptr %10) #10
  call void @llvm.lifetime.start.p0(i64 4, ptr %11) #10
  call void @llvm.lifetime.start.p0(i64 4, ptr %12) #10
  store i32 0, ptr %11, align 4, !tbaa !14
  store i32 0, ptr %10, align 4, !tbaa !14
  br label %16

16:                                               ; preds = %31, %4
  %17 = load i32, ptr %10, align 4, !tbaa !14
  %18 = load i32, ptr %6, align 4, !tbaa !14
  %19 = icmp slt i32 %17, %18
  br i1 %19, label %20, label %34

20:                                               ; preds = %16
  %21 = load ptr, ptr %5, align 8, !tbaa !12
  %22 = load i32, ptr %10, align 4, !tbaa !14
  %23 = sext i32 %22 to i64
  %24 = getelementptr inbounds ptr, ptr %21, i64 %23
  %25 = load ptr, ptr %24, align 8, !tbaa !3
  %26 = getelementptr inbounds nuw %struct.Ppoly_t, ptr %25, i32 0, i32 1
  %27 = load i64, ptr %26, align 8, !tbaa !20
  %28 = trunc i64 %27 to i32
  %29 = load i32, ptr %11, align 4, !tbaa !14
  %30 = add nsw i32 %29, %28
  store i32 %30, ptr %11, align 4, !tbaa !14
  br label %31

31:                                               ; preds = %20
  %32 = load i32, ptr %10, align 4, !tbaa !14
  %33 = add nsw i32 %32, 1
  store i32 %33, ptr %10, align 4, !tbaa !14
  br label %16, !llvm.loop !21

34:                                               ; preds = %16
  call void @llvm.lifetime.start.p0(i64 8, ptr %13) #10
  %35 = load i32, ptr %11, align 4, !tbaa !14
  %36 = sext i32 %35 to i64
  %37 = call ptr @gv_calloc(i64 noundef %36, i64 noundef 32)
  store ptr %37, ptr %13, align 8, !tbaa !23
  store i32 0, ptr %12, align 4, !tbaa !14
  store i32 0, ptr %10, align 4, !tbaa !14
  br label %38

38:                                               ; preds = %87, %34
  %39 = load i32, ptr %10, align 4, !tbaa !14
  %40 = load i32, ptr %6, align 4, !tbaa !14
  %41 = icmp slt i32 %39, %40
  br i1 %41, label %42, label %90

42:                                               ; preds = %38
  %43 = load ptr, ptr %5, align 8, !tbaa !12
  %44 = load i32, ptr %10, align 4, !tbaa !14
  %45 = sext i32 %44 to i64
  %46 = getelementptr inbounds ptr, ptr %43, i64 %45
  %47 = load ptr, ptr %46, align 8, !tbaa !3
  call void @llvm.memcpy.p0.p0.i64(ptr align 8 %9, ptr align 8 %47, i64 16, i1 false), !tbaa.struct !25
  call void @llvm.lifetime.start.p0(i64 8, ptr %14) #10
  store i64 0, ptr %14, align 8, !tbaa !27
  br label %48

48:                                               ; preds = %83, %42
  %49 = load i64, ptr %14, align 8, !tbaa !27
  %50 = getelementptr inbounds nuw %struct.Ppoly_t, ptr %9, i32 0, i32 1
  %51 = load i64, ptr %50, align 8, !tbaa !20
  %52 = icmp ult i64 %49, %51
  br i1 %52, label %54, label %53

53:                                               ; preds = %48
  call void @llvm.lifetime.end.p0(i64 8, ptr %14) #10
  br label %86

54:                                               ; preds = %48
  call void @llvm.lifetime.start.p0(i64 8, ptr %15) #10
  %55 = load i64, ptr %14, align 8, !tbaa !27
  %56 = add i64 %55, 1
  store i64 %56, ptr %15, align 8, !tbaa !27
  %57 = load i64, ptr %15, align 8, !tbaa !27
  %58 = getelementptr inbounds nuw %struct.Ppoly_t, ptr %9, i32 0, i32 1
  %59 = load i64, ptr %58, align 8, !tbaa !20
  %60 = icmp uge i64 %57, %59
  br i1 %60, label %61, label %62

61:                                               ; preds = %54
  store i64 0, ptr %15, align 8, !tbaa !27
  br label %62

62:                                               ; preds = %61, %54
  %63 = load ptr, ptr %13, align 8, !tbaa !23
  %64 = load i32, ptr %12, align 4, !tbaa !14
  %65 = sext i32 %64 to i64
  %66 = getelementptr inbounds %struct.Pedge_t, ptr %63, i64 %65
  %67 = getelementptr inbounds nuw %struct.Pedge_t, ptr %66, i32 0, i32 0
  %68 = getelementptr inbounds nuw %struct.Ppoly_t, ptr %9, i32 0, i32 0
  %69 = load ptr, ptr %68, align 8, !tbaa !8
  %70 = load i64, ptr %14, align 8, !tbaa !27
  %71 = getelementptr inbounds nuw %struct.Pxy_t, ptr %69, i64 %70
  call void @llvm.memcpy.p0.p0.i64(ptr align 8 %67, ptr align 8 %71, i64 16, i1 false), !tbaa.struct !28
  %72 = load ptr, ptr %13, align 8, !tbaa !23
  %73 = load i32, ptr %12, align 4, !tbaa !14
  %74 = sext i32 %73 to i64
  %75 = getelementptr inbounds %struct.Pedge_t, ptr %72, i64 %74
  %76 = getelementptr inbounds nuw %struct.Pedge_t, ptr %75, i32 0, i32 1
  %77 = getelementptr inbounds nuw %struct.Ppoly_t, ptr %9, i32 0, i32 0
  %78 = load ptr, ptr %77, align 8, !tbaa !8
  %79 = load i64, ptr %15, align 8, !tbaa !27
  %80 = getelementptr inbounds nuw %struct.Pxy_t, ptr %78, i64 %79
  call void @llvm.memcpy.p0.p0.i64(ptr align 8 %76, ptr align 8 %80, i64 16, i1 false), !tbaa.struct !28
  %81 = load i32, ptr %12, align 4, !tbaa !14
  %82 = add nsw i32 %81, 1
  store i32 %82, ptr %12, align 4, !tbaa !14
  call void @llvm.lifetime.end.p0(i64 8, ptr %15) #10
  br label %83

83:                                               ; preds = %62
  %84 = load i64, ptr %14, align 8, !tbaa !27
  %85 = add i64 %84, 1
  store i64 %85, ptr %14, align 8, !tbaa !27
  br label %48, !llvm.loop !31

86:                                               ; preds = %53
  br label %87

87:                                               ; preds = %86
  %88 = load i32, ptr %10, align 4, !tbaa !14
  %89 = add nsw i32 %88, 1
  store i32 %89, ptr %10, align 4, !tbaa !14
  br label %38, !llvm.loop !32

90:                                               ; preds = %38
  %91 = load ptr, ptr %13, align 8, !tbaa !23
  %92 = load ptr, ptr %7, align 8, !tbaa !16
  store ptr %91, ptr %92, align 8, !tbaa !23
  %93 = load i32, ptr %11, align 4, !tbaa !14
  %94 = load ptr, ptr %8, align 8, !tbaa !18
  store i32 %93, ptr %94, align 4, !tbaa !14
  call void @llvm.lifetime.end.p0(i64 8, ptr %13) #10
  call void @llvm.lifetime.end.p0(i64 4, ptr %12) #10
  call void @llvm.lifetime.end.p0(i64 4, ptr %11) #10
  call void @llvm.lifetime.end.p0(i64 4, ptr %10) #10
  call void @llvm.lifetime.end.p0(i64 16, ptr %9) #10
  ret i32 1
}