; Function Attrs: nofree nounwind uwtable
define noundef i32 @Ppolybarriers(ptr noundef readonly captures(none) %0, i32 noundef %1, ptr noundef writeonly captures(none) %2, ptr noundef writeonly captures(none) %3) local_unnamed_addr #2 {
  %5 = icmp sgt i32 %1, 0
  br i1 %5, label %.lr.ph.preheader, label %._crit_edge.thread

.lr.ph.preheader:                                 ; preds = %4
  %wide.trip.count = zext nneg i32 %1 to i64
  br label %.lr.ph

.lr.ph:                                           ; preds = %.lr.ph.preheader, %.lr.ph
  %indvars.iv = phi i64 [ 0, %.lr.ph.preheader ], [ %indvars.iv.next, %.lr.ph ]
  %.02933 = phi i32 [ 0, %.lr.ph.preheader ], [ %11, %.lr.ph ]
  %6 = getelementptr inbounds nuw ptr, ptr %0, i64 %indvars.iv
  %7 = load ptr, ptr %6, align 8, !tbaa !10
  %8 = getelementptr inbounds nuw i8, ptr %7, i64 8
  %9 = load i64, ptr %8, align 8, !tbaa !12
  %10 = trunc i64 %9 to i32
  %11 = add nsw i32 %.02933, %10
  %indvars.iv.next = add nuw nsw i64 %indvars.iv, 1
  %exitcond.not = icmp eq i64 %indvars.iv.next, %wide.trip.count
  br i1 %exitcond.not, label %._crit_edge, label %.lr.ph, !llvm.loop !13

._crit_edge:                                      ; preds = %.lr.ph
  %12 = sext i32 %11 to i64
  %mul.ov.i = icmp slt i32 %11, 0
  br i1 %mul.ov.i, label %13, label %._crit_edge.thread

13:                                               ; preds = %._crit_edge
  %14 = load ptr, ptr @stderr, align 8, !tbaa !15
  %15 = tail call i32 (ptr, ptr, ...) @fprintf(ptr noundef %14, ptr noundef nonnull @.str, i64 noundef range(i64 -2147483648, 2147483648) %12, i64 noundef 32) #13
  tail call fastcc void @graphviz_exit() #14
  unreachable

._crit_edge.thread:                               ; preds = %4, %._crit_edge
  %16 = phi i64 [ %12, %._crit_edge ], [ 0, %4 ]
  %.029.lcssa58 = phi i32 [ %11, %._crit_edge ], [ 0, %4 ]
  %17 = icmp ne i32 %.029.lcssa58, 0
  %18 = tail call noalias ptr @calloc(i64 noundef range(i64 -2147483648, 2147483648) %16, i64 noundef 32) #15
  %19 = icmp eq ptr %18, null
  %or.cond3.i = and i1 %17, %19
  br i1 %or.cond3.i, label %20, label %gv_calloc.exit.preheader

gv_calloc.exit.preheader:                         ; preds = %._crit_edge.thread
  br i1 %5, label %.lr.ph43.preheader, label %gv_calloc.exit._crit_edge

.lr.ph43.preheader:                               ; preds = %gv_calloc.exit.preheader
  %wide.trip.count54 = zext nneg i32 %1 to i64
  br label %.lr.ph43

20:                                               ; preds = %._crit_edge.thread
  %21 = load ptr, ptr @stderr, align 8, !tbaa !15
  %22 = shl nuw nsw i64 %16, 5
  %23 = tail call i32 (ptr, ptr, ...) @fprintf(ptr noundef %21, ptr noundef nonnull @.str.1, i64 noundef %22) #13
  tail call fastcc void @graphviz_exit() #14
  unreachable

.lr.ph43:                                         ; preds = %.lr.ph43.preheader, %gv_calloc.exit
  %indvars.iv51 = phi i64 [ 0, %.lr.ph43.preheader ], [ %indvars.iv.next52, %gv_calloc.exit ]
  %.03041 = phi i32 [ 0, %.lr.ph43.preheader ], [ %.131.lcssa, %gv_calloc.exit ]
  %24 = getelementptr inbounds nuw ptr, ptr %0, i64 %indvars.iv51
  %25 = load ptr, ptr %24, align 8, !tbaa !10
  %.sroa.0.0.copyload = load ptr, ptr %25, align 8, !tbaa !17
  %.sroa.5.0..sroa_idx = getelementptr inbounds nuw i8, ptr %25, i64 8
  %.sroa.5.0.copyload = load i64, ptr %.sroa.5.0..sroa_idx, align 8, !tbaa !18
  %.not44 = icmp eq i64 %.sroa.5.0.copyload, 0
  br i1 %.not44, label %gv_calloc.exit, label %.lr.ph38.preheader

.lr.ph38.preheader:                               ; preds = %.lr.ph43
  %26 = sext i32 %.03041 to i64
  br label %.lr.ph38

gv_calloc.exit.loopexit:                          ; preds = %.lr.ph38
  %27 = trunc nsw i64 %indvars.iv.next48 to i32
  br label %gv_calloc.exit

gv_calloc.exit:                                   ; preds = %gv_calloc.exit.loopexit, %.lr.ph43
  %.131.lcssa = phi i32 [ %.03041, %.lr.ph43 ], [ %27, %gv_calloc.exit.loopexit ]
  %indvars.iv.next52 = add nuw nsw i64 %indvars.iv51, 1
  %exitcond55.not = icmp eq i64 %indvars.iv.next52, %wide.trip.count54
  br i1 %exitcond55.not, label %gv_calloc.exit._crit_edge, label %.lr.ph43, !llvm.loop !19

.lr.ph38:                                         ; preds = %.lr.ph38.preheader, %.lr.ph38
  %indvars.iv47 = phi i64 [ %26, %.lr.ph38.preheader ], [ %indvars.iv.next48, %.lr.ph38 ]
  %.02836 = phi i64 [ 0, %.lr.ph38.preheader ], [ %28, %.lr.ph38 ]
  %28 = add nuw i64 %.02836, 1
  %.not = icmp ult i64 %28, %.sroa.5.0.copyload
  %spec.store.select = select i1 %.not, i64 %28, i64 0
  %29 = getelementptr inbounds %struct.Pedge_t, ptr %18, i64 %indvars.iv47
  %30 = getelementptr inbounds nuw %struct.Pxy_t, ptr %.sroa.0.0.copyload, i64 %.02836
  tail call void @llvm.memcpy.p0.p0.i64(ptr noundef nonnull align 8 dereferenceable(16) %29, ptr noundef nonnull align 8 dereferenceable(16) %30, i64 16, i1 false), !tbaa.struct !20
  %31 = getelementptr inbounds nuw i8, ptr %29, i64 16
  %32 = getelementptr inbounds nuw %struct.Pxy_t, ptr %.sroa.0.0.copyload, i64 %spec.store.select
  tail call void @llvm.memcpy.p0.p0.i64(ptr noundef nonnull align 8 dereferenceable(16) %31, ptr noundef nonnull align 8 dereferenceable(16) %32, i64 16, i1 false), !tbaa.struct !20
  %indvars.iv.next48 = add nsw i64 %indvars.iv47, 1
  %exitcond50.not = icmp eq i64 %28, %.sroa.5.0.copyload
  br i1 %exitcond50.not, label %gv_calloc.exit.loopexit, label %.lr.ph38, !llvm.loop !23

gv_calloc.exit._crit_edge:                        ; preds = %gv_calloc.exit, %gv_calloc.exit.preheader
  store ptr %18, ptr %2, align 8, !tbaa !24
  store i32 %.029.lcssa58, ptr %3, align 4, !tbaa !26
  ret i32 1
}